target datalayout = "e-m:e-p270:32:32-p271:32:32-p272:64:64-i64:64-i128:128-f80:128-n8:16:32:64-S128"
target triple = "x86_64-pc-linux-gnu"

; Function Attrs: inlinehint nounwind uwtable
define internal ptr @ossl_check_X509_EXTENSION_freefunc_type(ptr noundef %0) #3 {
  %2 = alloca ptr, align 8
  store ptr %0, ptr %2, align 8, !tbaa !37
  %3 = load ptr, ptr %2, align 8, !tbaa !37
  ret ptr %3
}

; Function Attrs: inlinehint nounwind uwtable
define internal ptr @ossl_check_X509_EXTENSION_sk_type(ptr noundef %0) #3 {
  %2 = alloca ptr, align 8
  store ptr %0, ptr %2, align 8, !tbaa !59
  %3 = load ptr, ptr %2, align 8, !tbaa !59
  ret ptr %3
}

; Function Attrs: nounwind uwtable
define i32 @X509V3_EXT_REQ_add_nconf(ptr noundef %0, ptr noundef %1, ptr noundef %2, ptr noundef %3) #0 {
  %5 = alloca ptr, align 8
  %6 = alloca ptr, align 8
  %7 = alloca ptr, align 8
  %8 = alloca ptr, align 8
  %9 = alloca ptr, align 8
  %10 = alloca i32, align 4
  store ptr %0, ptr %5, align 8, !tbaa !3
  store ptr %1, ptr %6, align 8, !tbaa !8
  store ptr %2, ptr %7, align 8, !tbaa !10
  store ptr %3, ptr %8, align 8, !tbaa !65
  call void @llvm.lifetime.start.p0(i64 8, ptr %9) #5
  store ptr null, ptr %9, align 8, !tbaa !59
  call void @llvm.lifetime.start.p0(i64 4, ptr %10) #5
  %11 = load ptr, ptr %5, align 8, !tbaa !3
  %12 = load ptr, ptr %6, align 8, !tbaa !8
  %13 = load ptr, ptr %7, align 8, !tbaa !10
  %14 = call i32 @X509V3_EXT_add_nconf_sk(ptr noundef %11, ptr noundef %12, ptr noundef %13, ptr noundef %9)
  store i32 %14, ptr %10, align 4, !tbaa !12
  %15 = load i32, ptr %10, align 4, !tbaa !12
  %16 = icmp ne i32 %15, 0
  br i1 %16, label %17, label %27

17:                                               ; preds = %4
  %18 = load ptr, ptr %8, align 8, !tbaa !65
  %19 = icmp ne ptr %18, null
  br i1 %19, label %20, label %27

20:                                               ; preds = %17
  %21 = load ptr, ptr %9, align 8, !tbaa !59
  %22 = icmp ne ptr %21, null
  br i1 %22, label %23, label %27

23:                                               ; preds = %20
  %24 = load ptr, ptr %8, align 8, !tbaa !65
  %25 = load ptr, ptr %9, align 8, !tbaa !59
  %26 = call i32 @X509_REQ_add_extensions(ptr noundef %24, ptr noundef %25)
  store i32 %26, ptr %10, align 4, !tbaa !12
  br label %27

27:                                               ; preds = %23, %20, %17, %4
  %28 = load ptr, ptr %9, align 8, !tbaa !59
  %29 = call ptr @ossl_check_X509_EXTENSION_sk_type(ptr noundef %28)
  %30 = call ptr @ossl_check_X509_EXTENSION_freefunc_type(ptr noundef @X509_EXTENSION_free)
  call void @OPENSSL_sk_pop_free(ptr noundef %29, ptr noundef %30)
  %31 = load i32, ptr %10, align 4, !tbaa !12
  call void @llvm.lifetime.end.p0(i64 4, ptr %10) #5
  call void @llvm.lifetime.end.p0(i64 8, ptr %9) #5
  ret i32 %31
}