; Function Attrs: nounwind uwtable
define i32 @X509V3_EXT_REQ_add_nconf(ptr noundef %0, ptr noundef %1, ptr noundef %2, ptr noundef %3) local_unnamed_addr #0 {
  %5 = alloca ptr, align 8
  call void @llvm.lifetime.start.p0(i64 8, ptr nonnull %5) #6
  store ptr null, ptr %5, align 8, !tbaa !40
  %6 = call i32 @X509V3_EXT_add_nconf_sk(ptr noundef %0, ptr noundef %1, ptr noundef %2, ptr noundef nonnull %5)
  %7 = icmp ne i32 %6, 0
  %8 = icmp ne ptr %3, null
  %or.cond = and i1 %8, %7
  %9 = load ptr, ptr %5, align 8
  %10 = icmp ne ptr %9, null
  %or.cond3 = select i1 %or.cond, i1 %10, i1 false
  br i1 %or.cond3, label %11, label %13

11:                                               ; preds = %4
  %12 = call i32 @X509_REQ_add_extensions(ptr noundef nonnull %3, ptr noundef nonnull %9) #6
  %.pre = load ptr, ptr %5, align 8, !tbaa !40
  br label %13

13:                                               ; preds = %11, %4
  %14 = phi ptr [ %.pre, %11 ], [ %9, %4 ]
  %.0 = phi i32 [ %12, %11 ], [ %6, %4 ]
  call void @OPENSSL_sk_pop_free(ptr noundef %14, ptr noundef nonnull @X509_EXTENSION_free) #6
  call void @llvm.lifetime.end.p0(i64 8, ptr nonnull %5) #6
  ret i32 %.0
}